(lp0
(I100
F166.59398641477978
F174.6312
F165.4259
F148.2391
tp1
a(I101
F94.63892511192903
F98.6488
F94.1753
F84.2566
tp2
a(I102
F145.59869747406316
F143.0237
F147.3806
F136.1173
tp3
a(I103
F116.01814677166789
F137.0358
F108.7655
F105.7211
tp4
a(I104
F81.6973627176459
F91.4694
F78.4656
F77.0516
tp5
a(I105
F107.64005840677679
F112.4082
F106.182
F105.0519
tp6
a(I106
F109.25455984812203
F112.0162
F110.2534
F86.8496
tp7
a(I107
F58.97474103105532
F64.0365
F57.1531
F58.4886
tp8
a(I108
F137.11059121661825
F152.1153
F133.4551
F116.057
tp9
a(I109
F144.96509216700687
F154.0808
F142.9604
F131.221
tp10
a(I110
F143.62788676756858
F148.2148
F143.5137
F127.3491
tp11
a(I111
F119.01931464453772
F114.9962
F120.5799
F117.0583
tp12
a(I112
F147.14287922646653
F159.1688
F144.5494
F127.6048
tp13
a(I113
F120.96677651434959
F115.0139
F123.7791
F112.3264
tp14
a(I114
F146.46772840223647
F145.867
F147.7167
F135.4307
tp15
a(I115
F165.97867889765686
F167.6456
F165.9342
F160.3994
tp16
a(I116
F107.25618638518745
F114.7034
F105.1117
F101.3578
tp17
a(I117
F92.17253733270302
F95.9621
F91.8178
F81.4386
tp18
a(I118
F96.63065653206337
F98.7978
F95.8562
F96.7022
tp19
a(I119
F100.69090407112452
F101.5381
F100.8477
F95.9705
tp20
a(I120
F105.35992786850923
F113.8714
F102.5533
F102.0647
tp21
a(I121
F134.5822694164281
F137.023
F133.5971
F135.8223
tp22
a(I122
F75.72888395857052
F78.1254
F75.1784
F72.6103
tp23
a(I123
F140.39348757955818
F143.236
F139.4404
F139.8685
tp24
a(I124
F127.24878376005992
F131.8845
F126.2158
F120.8115
tp25
a(I125
F117.65308910363298
F115.5331
F119.0341
F110.7824
tp26
a(I126
F113.40595466662461
F110.1482
F114.5846
F112.7447
tp27
a(I127
F51.672335428949594
F53.1927
F50.7051
F55.7784
tp28
a(I128
F130.4656360460283
F137.9021
F128.9351
F118.2485
tp29
a(I129
F148.18650206921532
F154.2667
F147.1967
F135.6934
tp30
a(I130
F117.59818850192445
F122.7397
F116.6043
F108.6979
tp31
a(I131
F76.42992356925558
F75.1905
F76.435
F80.6205
tp32
a(I132
F83.07672808325007
F85.2106
F82.2347
F83.9257
tp33
a(I133
F168.01128065851367
F175.8731
F166.3094
F156.2941
tp34
a(I134
F164.76990429677878
F172.5494
F163.2704
F151.1532
tp35
a(I135
F123.77136535571283
F153.3694
F112.9351
F110.9624
tp36
a(I136
F95.37624306089815
F110.4113
F91.5261
F73.7797
tp37
a(I137
F142.84872059760966
F144.6824
F142.5081
F139.7314
tp38
a(I138
F41.17186747495528
F46.6167
F39.0591
F41.5159
tp39
a(I139
F145.16053319703602
F155.8551
F143.2691
F123.3124
tp40
a(I140
F134.52331954180627
F137.1269
F133.5773
F134.7858
tp41
a(I141
F116.57945381749963
F121.1481
F115.2302
F113.6654
tp42
a(I142
F100.92777198967666
F99.4968
F101.2358
F102.8109
tp43
a(I143
F42.02107758359845
F37.8502
F41.9648
F54.7217
tp44
a(I144
F119.75638995818468
F115.0033
F121.4379
F119.0585
tp45
a(I145
F131.2169257172796
F143.0944
F128.2571
F116.0815
tp46
a(I146
F79.02486818037059
F83.5642
F77.4837
F77.9762
tp47
a(I147
F162.85405454033645
F164.7733
F163.0369
F153.9071
tp48
a(I148
F101.46984852413706
F106.6832
F100.4974
F91.9018
tp49
a(I149
F97.60937077466583
F98.5704
F96.9405
F100.9046
tp50
a(I150
F122.47703345129436
F123.7472
F122.2936
F119.7851
tp51
a(I151
F114.2773547247002
F116.5703
F114.5625
F102.5683
tp52
a(I152
F85.22410406623345
F87.9528
F84.3415
F84.316
tp53
a(I153
F169.72664433490564
F168.568
F170.8704
F161.9805
tp54
a(I154
F92.39879288948293
F91.7552
F92.233
F96.2738
tp55
a(I155
F102.66528228303709
F104.5031
F103.9804
F80.1822
tp56
a(I156
F91.7144994601835
F91.4597
F91.7553
F92.2003
tp57
a(I157
F105.81642429816256
F116.3023
F103.353
F90.4354
tp58
a(I158
F187.91319795890416
F189.2132
F188.1097
F181.1711
tp59
a(I159
F169.96607708946559
F172.9918
F169.92
F159.2793
tp60
a(I160
F101.3595300622652
F100.2941
F102.1675
F96.7686
tp61
a(I161
F102.41875211954464
F101.2291
F102.7108
F103.6314
tp62
a(I162
F155.63181821653902
F161.2181
F154.5966
F145.6421
tp63
a(I163
F144.88611413643673
F152.8675
F143.4978
F128.9879
tp64
a(I164
F103.80728177278763
F106.1275
F102.9874
F103.7908
tp65
a(I165
F80.5812743012241
F82.4269
F79.7439
F82.4095
tp66
a(I166
F87.88751422448885
F93.4291
F87.8562
F64.9544
tp67
a(I167
F186.94674416890004
F195.7417
F185.887
F164.4249
tp68
a(I168
F93.82958979712673
F94.6846
F94.4297
F84.1707
tp69
a(I169
F86.9812094434636
F91.6868
F85.9854
F79.6011
tp70
a(I170
F134.22193548278065
F135.2005
F133.8186
F134.8322
tp71
a(I171
F142.6127063803079
F136.1507
F144.1421
F149.2183
tp72
a(I172
F103.81636116108929
F99.7401
F105.4602
F101.1076
tp73
a(I173
F140.38942610164332
F148.7555
F138.9312
F123.5919
tp74
a(I174
F72.79037808478144
F80.437
F70.0051
F72.0242
tp75
a(I175
F93.8688810692159
F97.1287
F92.7527
F93.3888
tp76
a(I176
F149.91899043036983
F151.1709
F149.7427
F147.2298
tp77
a(I177
F45.618545372383366
F49.7087
F44.0543
F46.0932
tp78
a(I178
F143.68266615965612
F154.0646
F141.8875
F122.0596
tp79
a(I179
F116.09871199287406
F114.3435
F117.0135
F112.8957
tp80
a(I180
F121.8664526267668
F116.3484
F124.2146
F116.7831
tp81
a(I181
F170.46725250267676
F173.4373
F169.6983
F167.6219
tp82
a(I182
F133.71383397571427
F157.9083
F125.8859
F116.2901
tp83
a(I183
F144.4529966800048
F149.1634
F142.9853
F142.3093
tp84
a(I184
F105.39586357349268
F111.3079
F103.4167
F103.7656
tp85
a(I185
F163.8047661943895
F166.2962
F163.8588
F154.0692
tp86
a(I186
F74.88335218475332
F75.4047
F75.0089
F71.684
tp87
a(I187
F152.4881480715553
F169.4547
F147.3196
F140.1432
tp88
a(I188
F133.41348332946745
F138.2849
F131.981
F130.2749
tp89
a(I189
F137.80970230388073
F139.497
F137.1465
F138.5144
tp90
a(I190
F123.58853470974935
F123.9235
F124.2085
F115.8412
tp91
a(I191
F164.89789513903196
F149.0964
F169.0989
F174.6927
tp92
a(I192
F127.37800161921791
F104.0763
F133.2971
F140.2154
tp93
a(I193
F73.16041319516799
F77.5434
F72.1915
F66.6525
tp94
a(I194
F102.40051062222766
F97.8312
F103.783
F104.0763
tp95
a(I195
F90.48719892944929
F97.2159
F89.071
F79.3458
tp96
a(I196
F131.0741293779643
F142.3367
F128.3726
F115.7126
tp97
a(I197
F134.48668572170732
F148.4472
F131.9691
F104.4247
tp98
a(I198
F129.45461873817356
F128.6832
F129.8894
F127.7436
tp99
a(I199
F151.3255
F151.3255
F151.3255
F151.3255
tp100
a(I200
F189.57913692136202
F192.3997
F190.7982
F165.559
tp101
a(I201
F164.6503724641564
F171.7092
F164.7909
F134.9981
tp102
a(I202
F180.6874675413253
F186.3639
F181.702
F146.7229
tp103
a(I203
F200.14062126160684
F203.0478
F202.1162
F166.8131
tp104
a(I204
F225.83422644735558
F226.3941
F226.1073
F221.0196
tp105
a(I205
F226.05561432038684
F225.9993
F226.4379
F222.3366
tp106
a(I206
F211.70906409051852
F211.7595
F211.8491
F210.1007
tp107
a(I207
F137.7073316599547
F142.284
F138.0618
F115.8812
tp108
a(I208
F185.90978432926397
F193.1466
F186.7186
F147.5728
tp109
a(I209
F232.3366418320152
F232.5482
F232.831
F226.4839
tp110
a(I210
F167.21533576934416
F167.7206
F167.4375
F163.1125
tp111
a(I211
F180.16530022876194
F181.8095
F180.4695
F170.9837
tp112
a(I212
F219.52983073759813
F225.0581
F221.1147
F179.9611
tp113
a(I213
F207.50244127063073
F208.0732
F207.7592
F202.8131
tp114
a(I214
F96.5713262948348
F97.4979
F97.1748
F86.606
tp115
a(I215
F162.35004535075913
F170.2782
F162.3697
F130.1783
tp116
a(I216
F212.25327099563418
F219.883
F213.0278
F173.2599
tp117
a(I217
F217.23834283795225
F218.8385
F219.5796
F185.2754
tp118
a(I218
F222.70251868660566
F221.5794
F223.5229
F218.2771
tp119
a(I219
F99.44280645924209
F100.6287
F100.1567
F87.178
tp120
a(I220
F214.3586198803027
F221.8668
F215.0963
F176.4156
tp121
a(I221
F197.61755086398242
F196.6613
F198.4223
F192.744
tp122
a(I222
F224.3775179773768
F223.1297
F225.2132
F220.2417
tp123
a(I223
F215.66312285779955
F215.0346
F216.9463
F204.5215
tp124
a(I224
F206.74894653214375
F205.327
F208.0308
F198.542
tp125
a(I225
F196.98571914580515
F203.232
F198.0301
F160.4722
tp126
a(I226
F223.39162756244934
F222.3124
F224.1999
F218.9345
tp127
a(I227
F216.66501640961977
F215.5265
F217.4538
F212.6217
tp128
a(I228
F117.31672052418256
F115.9148
F118.2572
F112.5641
tp129
a(I229
F210.77335973543921
F209.9405
F211.5469
F205.7853
tp130
a(I230
F111.55926583945968
F112.9061
F112.2925
F98.5196
tp131
a(I231
F217.75800311797596
F226.0435
F218.1631
F180.5324
tp132
a(I232
F222.77091121498648
F221.7564
F223.5304
F218.5881
tp133
a(I233
F213.23526549459714
F212.0769
F214.0218
F209.2856
tp134
a(I234
F221.63029055363347
F221.253
F222.197
F217.155
tp135
a(I235
F204.63827701384173
F203.5742
F205.5441
F199.0996
tp136
a(I236
F201.64160188576648
F203.3036
F203.9169
F169.9916
tp137
a(I237
F215.03302019556355
F213.5957
F215.8946
F211.305
tp138
a(I238
F221.43947680534487
F220.2451
F222.3115
F216.7323
tp139
a(I239
F189.73552027767406
F191.2866
F191.5933
F163.4202
tp140
a(I240
F182.43602706854674
F181.6792
F183.1756
F177.5158
tp141
a(I241
F192.1212271570533
F191.8819
F192.7893
F186.0731
tp142
a(I242
F214.67880008363517
F213.8308
F215.3682
F210.6232
tp143
a(I243
F214.90929874968845
F220.2384
F216.3146
F178.3518
tp144
a(I244
F185.2373258192731
F184.8584
F186.0151
F178.5376
tp145
a(I245
F190.38506515435617
F190.0697
F190.9406
F185.793
tp146
a(I246
F224.75373209115685
F223.5528
F225.6054
F220.2833
tp147
a(I247
F168.27262461025396
F174.6307
F168.6982
F138.3167
tp148
a(I248
F174.40102572105906
F173.258
F175.2833
F169.3783
tp149
a(I249
F168.0524328122419
F173.6912
F168.7514
F137.9124
tp150
a(I250
F216.77954459358932
F219.8196
F217.1045
F202.1301
tp151
a(I251
F204.97698871596378
F207.4532
F207.1127
F171.6178
tp152
a(I252
F220.04027536593367
F218.8774
F220.8872
F215.4807
tp153
a(I253
F147.71521577031757
F148.4589
F148.7047
F134.3826
tp154
a(I254
F187.45556460449959
F186.9023
F188.1265
F182.5184
tp155
a(I255
F221.72617315273618
F220.6878
F222.4773
F217.7157
tp156
a(I256
F224.77068173155754
F224.1044
F225.4273
F220.404
tp157
a(I257
F207.07911269502603
F215.1005
F207.5285
F170.2539
tp158
a(I258
F230.79842767337206
F230.1724
F231.6219
F224.5466
tp159
a(I259
F222.52089319956931
F221.4541
F223.2838
F218.4904
tp160
a(I260
F190.82104755648982
F189.6374
F191.6733
F186.269
tp161
a(I261
F176.7817283668579
F178.4067
F178.6164
F150.2676
tp162
a(I262
F197.98709479567117
F196.8799
F198.8816
F192.7198
tp163
a(I263
F182.15197608598226
F181.6125
F182.833
F177.0565
tp164
a(I264
F191.911876909386
F200.72
F192.3022
F151.8204
tp165
a(I265
F186.45078472634435
F185.5461
F187.2999
F180.9191
tp166
a(I266
F219.99459404594705
F218.7797
F220.8052
F215.9998
tp167
a(I267
F217.10772515139593
F215.8992
F217.9068
F213.209
tp168
a(I268
F201.84708726241294
F201.3914
F202.6611
F195.0576
tp169
a(I269
F196.72512115220067
F201.9974
F197.493
F167.8521
tp170
a(I270
F168.58602742370365
F167.1357
F169.0415
F169.0687
tp171
a(I271
F206.7320526686129
F206.1928
F207.4817
F200.9277
tp172
a(I272
F188.33116701678534
F188.9339
F189.0124
F179.0267
tp173
a(I273
F216.69628699211916
F220.0464
F218.654
F181.9642
tp174
a(I274
F219.2409503374254
F217.8489
F220.1235
F215.1341
tp175
a(I275
F226.158924607939
F225.0083
F226.9812
F221.8138
tp176
a(I276
F196.96875415465743
F204.6627
F197.6433
F158.556
tp177
a(I277
F196.77327535384248
F203.7482
F197.3304
F163.0573
tp178
a(I278
F220.27176519127863
F219.1364
F221.1272
F215.5245
tp179
a(I279
F206.98002363557123
F214.9096
F207.4796
F169.9417
tp180
a(I280
F218.39092386703737
F217.274
F219.1312
F214.7741
tp181
a(I281
F186.44506088870097
F191.7103
F187.21
F157.4823
tp182
a(I282
F196.12439599658632
F203.0123
F196.9842
F159.0176
tp183
a(I283
F170.29409268296627
F173.501
F171.6909
F142.262
tp184
a(I284
F226.7531958796419
F225.6805
F227.537
F222.528
tp185
a(I285
F214.707477635847
F222.4234
F215.6329
F173.4894
tp186
a(I286
F117.99292576645622
F117.4349
F118.5476
F114.2571
tp187
a(I287
F172.94747076076504
F180.0211
F173.3054
F140.7217
tp188
a(I288
F222.78009657127436
F222.8691
F223.6602
F213.3019
tp189
a(I289
F209.02482127253853
F210.1072
F211.0592
F182.7545
tp190
a(I290
F224.56724682640296
F223.5982
F225.3142
F220.3517
tp191
a(I291
F189.49752461109375
F197.3199
F190.0905
F151.3213
tp192
a(I292
F226.3625642951857
F225.2949
F227.1516
F222.0648
tp193
a(I293
F199.17814700194438
F199.0605
F199.7599
F193.5965
tp194
a(I294
F223.5302958719675
F222.4936
F224.3728
F218.5633
tp195
a(I295
F217.3319628706847
F224.9044
F217.9577
F180.5458
tp196
a(I296
F219.74906944072032
F218.5476
F220.5662
F215.6382
tp197
a(I297
F167.7970457530218
F169.6341
F169.5196
F141.6138
tp198
a(I298
F196.0859034230121
F204.2128
F196.5899
F157.8256
tp199
a(I299
F185.85546546552266
F184.7095
F186.9156
F178.9734
tp200
a(I300
F215.508745774179
F214.6484
F216.2148
F211.3247
tp201
a(I301
F120.33122720887192
F122.0018
F120.9618
F107.2319
tp202
a(I302
F196.91265482793034
F195.5905
F197.8523
F191.949
tp203
a(I303
F89.03532083614226
F88.368
F89.7441
F84.0191
tp204
a(I304
F141.48065684503803
F142.2505
F142.5976
F126.5635
tp205
a(I305
F214.34586031240906
F219.7999
F215.6712
F178.2157
tp206
a(I306
F203.83855865224703
F205.5738
F206.0927
F172.1697
tp207
a(I307
F221.51183050091052
F220.419
F222.3289
F217.0115
tp208
a(I308
F112.5359950933059
F113.5221
F113.3906
F99.5605
tp209
a(I309
F209.7733248363287
F208.9906
F210.5261
F204.8205
tp210
a(I310
F189.96011202769932
F189.3403
F190.6459
F185.1099
tp211
a(I311
F222.70349997776867
F222.5369
F223.3
F217.155
tp212
a(I312
F179.62002129213167
F179.9631
F180.8009
F165.8347
tp213
a(I313
F194.9389766586859
F201.4969
F195.74
F160.0224
tp214
a(I314
F186.48027891624756
F188.3856
F188.3748
F158.1991
tp215
a(I315
F221.823317824788
F220.7676
F222.6038
F217.5702
tp216
a(I316
F109.12041606103126
F108.4507
F109.7076
F105.4418
tp217
a(I317
F165.3005578029628
F171.5803
F165.5992
F137.1948
tp218
a(I318
F183.2925839566462
F182.8208
F183.9716
F177.9725
tp219
a(I319
F128.55120412123114
F129.3778
F129.5139
F115.0879
tp220
a(I320
F164.31898941166926
F163.9632
F165.6778
F151.189
tp221
a(I321
F186.94673552705794
F196.5024
F187.1191
F145.9721
tp222
a(I322
F222.21296762430978
F221.2742
F222.957
F217.9182
tp223
a(I323
F202.37005455469986
F201.5441
F203.1671
F197.1076
tp224
a(I324
F144.06119035814513
F143.6803
F144.5288
F140.6085
tp225
a(I325
F199.53979894569315
F200.6081
F201.9906
F168.2296
tp226
a(I326
F196.68882842835407
F205.206
F197.1653
F156.9968
tp227
a(I327
F214.47537900886581
F213.3324
F215.2724
F210.3618
tp228
a(I328
F177.41734456988212
F179.4479
F179.0453
F151.6964
tp229
a(I329
F164.43439822588536
F164.0413
F165.0144
F159.858
tp230
a(I330
F175.91324736156
F174.5033
F176.8499
F171.286
tp231
a(I331
F198.68831344555278
F206.064
F199.4106
F161.1669
tp232
a(I332
F221.102935954021
F220.0535
F221.8705
F216.9613
tp233
a(I333
F142.54457889347066
F140.9875
F143.4899
F138.3327
tp234
a(I334
F224.24844072016276
F223.1605
F225.0373
F220.0248
tp235
a(I335
F174.7290582080882
F181.746
F175.1204
F142.3863
tp236
a(I336
F219.13345463579776
F219.0866
F220.0843
F209.4001
tp237
a(I337
F210.90826213514052
F218.8014
F211.5789
F171.9951
tp238
a(I338
F207.41021168174703
F209.4368
F209.6303
F174.9759
tp239
a(I339
F218.78923271645118
F217.7004
F219.593
F214.4121
tp240
a(I340
F113.87132417040856
F115.0794
F114.7013
F100.2927
tp241
a(I341
F204.90877909659977
F204.3693
F205.5576
F200.1596
tp242
a(I342
F228.8578499084883
F227.5062
F229.7622
F224.3824
tp243
a(I343
F234.61384343347245
F234.2015
F235.4766
F227.1727
tp244
a(I344
F215.6440696128509
F214.9811
F216.4674
F209.5207
tp245
a(I345
F213.0265347647821
F220.0123
F213.7874
F177.0846
tp246
a(I346
F223.3188807875354
F222.2972
F224.12
F218.729
tp247
a(I347
F218.01628366064264
F216.9697
F218.7767
F213.9378
tp248
a(I348
F196.70261787746733
F195.0711
F197.7242
F191.9966
tp249
a(I349
F199.50747907185917
F198.8423
F200.2699
F194.0233
tp250
a(I350
F171.5793089013874
F180.8955
F171.8007
F130.4954
tp251
a(I351
F185.341374593643
F184.6235
F186.2556
F178.4391
tp252
a(I352
F109.01208651279907
F110.2784
F109.7559
F96.1557
tp253
a(I353
F223.66152353119685
F222.4724
F224.4782
F219.5122
tp254
a(I354
F219.18200691229916
F217.9987
F220.0076
F214.9177
tp255
a(I355
F216.72913885374456
F219.7781
F219.0124
F179.2892
tp256
a(I356
F188.7661440042224
F187.7691
F189.7151
F182.5198
tp257
a(I357
F200.37980729735207
F199.8096
F201.0669
F195.3404
tp258
a(I358
F219.82931112865904
F221.7438
F222.2965
F185.052
tp259
a(I359
F223.45820520803198
F222.1763
F224.3035
F219.3446
tp260
a(I360
F220.26824629683767
F219.1826
F221.0899
F215.6939
tp261
a(I361
F211.50694333944568
F216.3861
F213.2364
F172.8333
tp262
a(I362
F208.0310577229958
F206.9435
F208.8974
F202.9925
tp263
a(I363
F201.39412327954227
F209.2368
F201.9202
F164.286
tp264
a(I364
F215.22190024085938
F214.1621
F215.9861
F211.1508
tp265
a(I365
F211.28519879809392
F219.1554
F211.831
F174.0358
tp266
a(I366
F183.38277016148163
F182.9038
F184.2068
F176.5587
tp267
a(I367
F163.76002045457346
F170.0751
F164.3183
F132.2287
tp268
a(I368
F224.43062098148283
F223.3005
F225.2588
F219.9498
tp269
a(I369
F107.92956223726213
F107.6506
F108.4174
F103.8722
tp270
a(I370
F170.99019186879042
F177.2922
F171.4362
F141.0914
tp271
a(I371
F212.6092860913901
F215.0196
F212.965
F200.0285
tp272
a(I372
F212.8096564258124
F215.8961
F214.5222
F182.1039
tp273
a(I373
F211.01015856649738
F211.5813
F212.0376
F198.1237
tp274
a(I374
F219.243461165971
F218.1594
F220.044
F214.8829
tp275
a(I375
F102.83998256291665
F104.4574
F103.5194
F89.2359
tp276
a(I376
F222.46417813654986
F221.528
F223.2129
F218.1114
tp277
a(I377
F178.56172661876687
F182.2415
F180.1271
F146.5374
tp278
a(I378
F203.74351026466272
F202.6499
F204.7303
F197.4603
tp279
a(I379
F215.94190887548874
F214.6812
F216.8426
F211.1726
tp280
a(I380
F203.19086526726613
F208.5408
F204.6483
F165.6491
tp281
a(I381
F218.45097065457298
F217.3072
F219.232
F214.5076
tp282
a(I382
F201.73435401505367
F202.5763
F204.0041
F173.586
tp283
a(I383
F177.57012761027707
F177.3007
F178.3451
F170.4909
tp284
a(I384
F195.7796985095062
F195.4356
F196.5377
F189.169
tp285
a(I385
F192.86786780080294
F192.2071
F193.7779
F185.8071
tp286
a(I386
F172.9940911170172
F181.9787
F173.1972
F133.8253
tp287
a(I387
F186.2247626590824
F185.3667
F187.1034
F180.2122
tp288
a(I388
F226.21830003899152
F225.0948
F227.0258
F221.9293
tp289
a(I389
F180.58436650152396
F180.5125
F181.3616
F172.7542
tp290
a(I390
F167.32963255550678
F172.748
F168.1558
F136.5726
tp291
a(I391
F197.72578147336108
F197.4847
F198.3726
F191.9106
tp292
a(I392
F172.68378688549043
F180.2955
F172.6659
F142.6892
tp293
a(I393
F226.73715903210336
F226.6941
F227.5478
F218.4874
tp294
a(I394
F211.73355751290043
F212.8654
F212.3724
F200.9345
tp295
a(I395
F227.54309000089262
F227.4773
F227.8251
F224.8933
tp296
a(I396
F103.5435
F103.5435
F103.5435
F103.5435
tp297
a(I397
F64.21629644639458
F86.6742
F56.2619
F43.0369
tp298
a(I398
F170.8863240344187
F171.0358
F171.5117
F163.8447
tp299
a(I399
F164.77620136821102
F164.1318
F166.1151
F152.9719
tp300
a(I400
F179.29980565845497
F179.8505
F180.2247
F167.5364
tp301
a(I401
F170.92990231256587
F172.2054
F172.5055
F148.8865
tp302
a(I402
F165.76541039018926
F164.0854
F167.6837
F151.4667
tp303
a(I403
F162.81687146305657
F157.1285
F165.9429
F150.0538
tp304
a(I404
F161.91307322270845
F161.4532
F163.3007
F148.8527
tp305
a(I405
F178.1300292025062
F177.0168
F179.9707
F162.5836
tp306
a(I406
F179.6279491957818
F179.0317
F181.4716
F162.0463
tp307
a(I407
F148.59919657771275
F153.7428
F149.3114
F120.0588
tp308
a(I408
F136.3442000990563
F152.3412
F133.1203
F105.1211
tp309
a(I409
F144.53353585405958
F147.7815
F145.7777
F117.7059
tp310
a(I410
F249.61110201865404
F249.4742
F250.4296
F241.6378
tp311
a(I411
F250.24270888186817
F250.0612
F250.9041
F244.0801
tp312
a(I412
F198.49412890736048
F198.5024
F198.9163
F194.1221
tp313
a(I413
F189.96082839817223
F190.6026
F190.3594
F183.5188
tp314
a(I414
F233.62012888512436
F233.5937
F234.0591
F229.2072
tp315
a(I415
F231.93979422325455
F233.7191
F233.7985
F205.0923
tp316
a(I416
F188.1543725774545
F190.1178
F190.163
F158.2653
tp317
a(I417
F196.65441218446102
F198.0551
F198.5596
F170.4763
tp318
a(I418
F190.82092868319614
F192.0948
F192.7939
F164.2949
tp319
a(I419
F167.88562875133417
F168.9162
F168.0768
F162.1813
tp320
a(I420
F126.34156600149244
F127.5758
F126.5109
F120.0683
tp321
a(I421
F145.26880049102164
F145.6147
F145.7352
F139.1662
tp322
a(I422
F155.03315342898154
F155.7163
F155.4186
F148.5494
tp323
a(I423
F137.5167985062197
F138.2334
F137.8975
F130.9392
tp324
a(I424
F205.28633125234393
F233.9888
F199.5264
F145.4351
tp325
a(I425
F177.9147927191269
F177.7169
F177.841
F179.3596
tp326
a(I426
F142.6647324414273
F149.097
F141.7904
F127.3944
tp327
a(I427
F192.86196704385415
F195.1408
F192.3104
F190.3179
tp328
a(I428
F139.82378063913615
F141.8148
F139.5669
F135.2503
tp329
a(I429
F136.5455025952096
F138.5184
F135.7139
F137.9207
tp330
a(I430
F162.3764265827356
F185.6977
F157.5594
F115.1404
tp331
a(I431
F170.25714470747016
F170.3505
F170.3603
F168.872
tp332
a(I432
F157.52147505336328
F155.1126
F157.3341
F167.5756
tp333
a(I433
F160.2761472050952
F192.6432
F150.1569
F130.8655
tp334
a(I434
F177.23093816473067
F178.8196
F179.4999
F145.5372
tp335
a(I435
F144.263197463238
F144.9149
F144.2989
F141.5601
tp336
a(I436
F100.22670568814296
F102.0544
F100.2303
F93.4226
tp337
a(I437
F99.4876
F99.4876
F99.4876
F99.4876
tp338
a(I438
F188.37092838411485
F195.1158
F189.0154
F154.4183
tp339
a(I439
F184.8805194461594
F185.3117
F186.3108
F167.9885
tp340
a(I440
F170.75669779456882
F180.7958
F170.3337
F134.5951
tp341
a(I441
F162.08280206900727
F172.2314
F161.4701
F127.5177
tp342
a(I442
F209.90089739773745
F220.8472
F209.2925
F173.0293
tp343
a(I443
F103.79860586293613
F102.5442
F103.9382
F106.7559
tp344
a(I444
F174.59876163391007
F180.9174
F174.2079
F154.6244
tp345
a(I445
F162.261434168374
F169.9837
F160.936
F146.9311
tp346
a(I446
F140.1716498098215
F143.2254
F140.695
F122.8301
tp347
a(I447
F165.321102748475
F173.407
F163.6835
F151.9834
tp348
a(I448
F132.98505093640924
F137.3872
F132.4168
F122.4716
tp349
a(I449
F133.2234515023905
F149.5812
F128.2256
F120.9605
tp350
a(I450
F135.7104390003375
F147.1484
F133.8486
F109.7765
tp351
a(I451
F112.43183959846475
F121.0592
F109.6137
F108.9054
tp352
a(I452
F156.082845343154
F166.0769
F153.4208
F146.0251
tp353
a(I453
F142.4203994174457
F151.6989
F142.2476
F105.4115
tp354
a(I454
F64.28750854219815
F80.0731
F59.8271
F41.0129
tp355
a(I455
F126.76626254635674
F126.8529
F127.4566
F119.1991
tp356
a(I456
F93.53440385718103
F96.739
F92.8234
F89.0736
tp357
a(I457
F117.14842764817273
F120.3472
F117.3118
F103.1604
tp358
a(I458
F106.64687034320552
F104.3799
F107.6086
F104.7623
tp359
a(I459
F109.75303432088755
F132.8828
F104.8604
F53.1588
tp360
a(I460
F151.68798271502882
F157.0628
F150.2994
F146.2499
tp361
a(I461
F121.8344
F121.8344
F121.8344
F121.8344
tp362
a(I462
F114.3833
F114.3833
F114.3833
F114.3833
tp363
a(I463
F167.30193570127688
F170.3028
F166.8155
F161.403
tp364
a(I464
F117.78853309736225
F153.1081
F106.3823
F77.1185
tp365
a(I465
F186.8894
F186.8894
F186.8894
F186.8894
tp366
a(I466
F90.73615570140588
F106.9167
F85.635
F77.7239
tp367
a(I467
F196.75319342203764
F211.532
F193.9875
F168.2505
tp368
a(I468
F142.5777710945257
F189.0067
F127.367
F86.5519
tp369
a(I469
F192.86348921854258
F204.2577
F191.232
F165.914
tp370
a(I470
F196.91454032802687
F212.1599
F193.9703
F168.4258
tp371
a(I471
F80.63165047178211
F83.7131
F80.1015
F74.6496
tp372
a(I472
F234.2686
F234.2686
F234.2686
F234.2686
tp373
a(I473
F201.3865429386366
F223.5387
F196.3641
F165.8182
tp374
a(I474
F209.64897690039294
F233.5365
F204.3042
F170.045
tp375
a(I475
F193.8789326132259
F210.7287
F190.4419
F163.859
tp376
a(I476
F100.7238
F100.7238
F100.7238
F100.7238
tp377
a(I477
F136.09652360730894
F140.1961
F135.4239
F127.9209
tp378
a(I478
F202.10841305941673
F203.6529
F202.031
F197.344
tp379
a(I479
F225.1011564151896
F230.6537
F224.4578
F211.2838
tp380
a(I480
F195.648026325738
F216.6966
F191.4157
F155.4497
tp381
a(I481
F232.42181860894857
F232.5745
F232.7395
F228.619
tp382
a(I482
F203.39959966504634
F208.3313
F202.6451
F193.1013
tp383
a(I483
F194.8985629517223
F201.3686
F195.1817
F166.6628
tp384
a(I484
F130.4778
F130.4778
F130.4778
F130.4778
tp385
a(I485
F216.73344513631798
F236.669
F213.2888
F173.1793
tp386
a(I486
F207.06071915362932
F228.5019
F202.6178
F168.1423
tp387
a(I487
F201.62285202744917
F226.2828
F196.6035
F153.5106
tp388
a(I488
F100.4131
F100.4131
F100.4131
F100.4131
tp389
a(I489
F70.45856674878051
F70.7958
F69.9438
F74.3641
tp390
a(I490
F98.8318
F98.8318
F98.8318
F98.8318
tp391
a(I491
F107.9674
F107.9674
F107.9674
F107.9674
tp392
a(I492
F184.3774456280504
F185.2465
F184.1785
F183.3076
tp393
a(I493
F174.8854833468306
F196.0552
F171.046
F127.4788
tp394
a(I494
F178.9371962350827
F197.7351
F175.9394
F133.1707
tp395
a(I495
F112.91262740873351
F126.0724
F111.4702
F69.9426
tp396
a(I496
F151.3907699412559
F142.3216
F153.6079
F159.65
tp397
a(I497
F116.55519401370937
F124.693
F116.0661
F88.2232
tp398
a(I498
F119.84107844292504
F121.6038
F121.0553
F99.4041
tp399
a(I499
F101.47199896438026
F102.6704
F100.8725
F103.2579
tp400
a(I500
F111.57176065679218
F124.1724
F110.3952
F67.6327
tp401
a(I501
F239.77062053905578
F241.2626
F240.918
F222.1302
tp402
a(I502
F227.72632079952515
F234.1797
F227.5748
F204.9288
tp403
a(I503
F182.92635968464552
F196.9028
F180.2037
F157.1441
tp404
a(I504
F203.1030742308014
F209.9078
F201.785
F191.6075
tp405
a(I505
F76.7536
F76.7536
F76.7536
F76.7536
tp406
a(I506
F239.1568221187869
F239.1727
F239.1339
F239.3334
tp407
a(I507
F237.84499999999997
F237.845
F237.845
F237.845
tp408
a(I508
F131.4931
F131.4931
F131.4931
F131.4931
tp409
a(I509
F177.11986714312758
F184.3755
F176.1057
F160.3618
tp410
a(I510
F150.23920720960666
F156.9141
F148.7482
F140.8391
tp411
a(I511
F192.21201585005358
F193.4591
F192.4661
F185.0612
tp412
a(I512
F183.61175929334624
F191.4969
F181.6741
F174.422
tp413
a(I513
F205.33537207030562
F210.8213
F204.2892
F196.0257
tp414
a(I514
F160.4358812195394
F166.9225
F159.5823
F144.8783
tp415
a(I515
F99.9024
F99.9024
F99.9024
F99.9024
tp416
a(I516
F125.83819999999999
F125.8382
F125.8382
F125.8382
tp417
a(I517
F222.73899999999998
F222.739
F222.739
F222.739
tp418
a(I518
F223.68359999999998
F223.6836
F223.6836
F223.6836
tp419
a(I519
F238.9632
F238.9632
F238.9632
F238.9632
tp420
a(I520
F219.01179999999997
F219.0118
F219.0118
F219.0118
tp421
a(I521
F225.9599
F225.9599
F225.9599
F225.9599
tp422
a(I522
F149.0036
F149.0036
F149.0036
F149.0036
tp423
a(I523
F201.9664
F201.9664
F201.9664
F201.9664
tp424
a(I524
F214.9312
F214.9312
F214.9312
F214.9312
tp425
a(I525
F139.648
F139.648
F139.648
F139.648
tp426
a(I526
F156.6715
F156.6715
F156.6715
F156.6715
tp427
a(I527
F71.92049999999999
F71.9205
F71.9205
F71.9205
tp428
a(I528
F176.6822
F176.6822
F176.6822
F176.6822
tp429
a(I529
F177.1736
F177.1736
F177.1736
F177.1736
tp430
a(I530
F97.5134
F97.5134
F97.5134
F97.5134
tp431
a(I531
F111.0806
F111.0806
F111.0806
F111.0806
tp432
a(I532
F216.2164
F216.2164
F216.2164
F216.2164
tp433
a(I533
F82.7323
F82.7323
F82.7323
F82.7323
tp434
a(I534
F139.4001
F139.4001
F139.4001
F139.4001
tp435
a(I535
F195.5263
F195.5263
F195.5263
F195.5263
tp436
a(I536
F203.6747
F203.6747
F203.6747
F203.6747
tp437
a(I537
F191.80049999999997
F191.8005
F191.8005
F191.8005
tp438
a(I538
F196.4518
F196.4518
F196.4518
F196.4518
tp439
a(I539
F174.7067
F174.7067
F174.7067
F174.7067
tp440
a(I540
F199.5383
F199.5383
F199.5383
F199.5383
tp441
a(I541
F194.5627
F194.5627
F194.5627
F194.5627
tp442
a(I542
F153.7154
F153.7154
F153.7154
F153.7154
tp443
a(I543
F115.9367
F115.9367
F115.9367
F115.9367
tp444
a(I544
F167.2771
F167.2771
F167.2771
F167.2771
tp445
a(I545
F176.3108
F176.3108
F176.3108
F176.3108
tp446
a(I546
F220.0256
F220.0256
F220.0256
F220.0256
tp447
a(I547
F69.0982
F69.0982
F69.0982
F69.0982
tp448
a(I548
F111.73880000000001
F111.7388
F111.7388
F111.7388
tp449
a(I549
F118.4852
F118.4852
F118.4852
F118.4852
tp450
a(I550
F55.9289
F55.9289
F55.9289
F55.9289
tp451
a(I551
F206.5415
F206.5415
F206.5415
F206.5415
tp452
a(I552
F160.456
F160.456
F160.456
F160.456
tp453
a(I553
F215.49539999999996
F215.4954
F215.4954
F215.4954
tp454
a(I554
F100.31289999999998
F100.3129
F100.3129
F100.3129
tp455
a(I555
F173.4057
F173.4057
F173.4057
F173.4057
tp456
a(I556
F179.3798
F179.3798
F179.3798
F179.3798
tp457
a(I557
F216.6931
F216.6931
F216.6931
F216.6931
tp458
a(I558
F221.43549999999996
F221.4355
F221.4355
F221.4355
tp459
a(I559
F248.3988
F248.3988
F248.3988
F248.3988
tp460
a(I560
F114.58189999999999
F114.5819
F114.5819
F114.5819
tp461
a(I561
F152.1001
F152.1001
F152.1001
F152.1001
tp462
a(I562
F158.52019999999996
F158.5202
F158.5202
F158.5202
tp463
a(I563
F178.1564
F178.1564
F178.1564
F178.1564
tp464
a(I564
F94.7151
F94.7151
F94.7151
F94.7151
tp465
a(I565
F211.0369
F211.0369
F211.0369
F211.0369
tp466
a(I566
F175.6818
F175.6818
F175.6818
F175.6818
tp467
a(I567
F145.47639999999998
F145.4764
F145.4764
F145.4764
tp468
a(I568
F100.3846
F100.3846
F100.3846
F100.3846
tp469
a(I569
F212.3451
F212.3451
F212.3451
F212.3451
tp470
a(I570
F208.6885
F208.6885
F208.6885
F208.6885
tp471
a(I571
F198.1033
F198.1033
F198.1033
F198.1033
tp472
a(I572
F125.56719999999999
F125.5672
F125.5672
F125.5672
tp473
a(I573
F194.8444
F194.8444
F194.8444
F194.8444
tp474
a(I574
F120.1921
F120.1921
F120.1921
F120.1921
tp475
a(I575
F112.2374
F112.2374
F112.2374
F112.2374
tp476
a(I576
F222.7215
F222.7215
F222.7215
F222.7215
tp477
a(I577
F209.91619999999998
F209.9162
F209.9162
F209.9162
tp478
a(I578
F148.3657
F148.3657
F148.3657
F148.3657
tp479
a(I579
F72.1405
F72.1405
F72.1405
F72.1405
tp480
a(I580
F130.98
F130.98
F130.98
F130.98
tp481
a(I581
F162.6481
F162.6481
F162.6481
F162.6481
tp482
a(I582
F190.1831
F190.1831
F190.1831
F190.1831
tp483
a(I583
F94.7702
F94.7702
F94.7702
F94.7702
tp484
a(I584
F184.0518
F184.0518
F184.0518
F184.0518
tp485
a(I585
F150.2912
F150.2912
F150.2912
F150.2912
tp486
a(I586
F165.5829
F165.5829
F165.5829
F165.5829
tp487
a(I587
F194.068
F194.068
F194.068
F194.068
tp488
a(I588
F99.8482
F99.8482
F99.8482
F99.8482
tp489
a(I589
F118.8004
F118.8004
F118.8004
F118.8004
tp490
a(I590
F180.2672
F180.2672
F180.2672
F180.2672
tp491
a(I591
F222.8512
F222.8512
F222.8512
F222.8512
tp492
a(I592
F216.5269
F216.5269
F216.5269
F216.5269
tp493
a(I593
F197.2914
F197.2914
F197.2914
F197.2914
tp494
a(I594
F107.9807
F107.9807
F107.9807
F107.9807
tp495
a(I595
F188.5051
F188.5051
F188.5051
F188.5051
tp496
a(I596
F194.76689999999996
F194.7669
F194.7669
F194.7669
tp497
a(I597
F141.3044
F141.3044
F141.3044
F141.3044
tp498
a(I598
F174.2132
F174.2132
F174.2132
F174.2132
tp499
a(I599
F211.39309999999998
F211.3931
F211.3931
F211.3931
tp500
a(I600
F127.4046
F127.4046
F127.4046
F127.4046
tp501
a(I601
F150.4985
F150.4985
F150.4985
F150.4985
tp502
a(I602
F191.7356
F191.7356
F191.7356
F191.7356
tp503
a(I603
F132.36619999999996
F132.3662
F132.3662
F132.3662
tp504
a(I604
F51.7413
F51.7413
F51.7413
F51.7413
tp505
a(I605
F148.9948
F148.9948
F148.9948
F148.9948
tp506
a(I606
F180.0655
F180.0655
F180.0655
F180.0655
tp507
a(I607
F195.0839
F195.0839
F195.0839
F195.0839
tp508
a(I608
F218.8426
F218.8426
F218.8426
F218.8426
tp509
a(I609
F141.80949999999999
F141.8095
F141.8095
F141.8095
tp510
a(I610
F228.028
F228.028
F228.028
F228.028
tp511
a(I611
F213.81379999999996
F213.8138
F213.8138
F213.8138
tp512
a(I612
F165.5218
F165.5218
F165.5218
F165.5218
tp513
a(I613
F194.55309999999997
F194.5531
F194.5531
F194.5531
tp514
a(I614
F167.9237
F167.9237
F167.9237
F167.9237
tp515
a(I615
F60.1453
F60.1453
F60.1453
F60.1453
tp516
a(I616
F143.605
F143.605
F143.605
F143.605
tp517
a(I617
F192.0713
F192.0713
F192.0713
F192.0713
tp518
a(I618
F146.3663
F146.3663
F146.3663
F146.3663
tp519
a(I619
F157.5119
F157.5119
F157.5119
F157.5119
tp520
a(I620
F183.0546
F183.0546
F183.0546
F183.0546
tp521
a(I621
F222.33939999999998
F222.3394
F222.3394
F222.3394
tp522
a(I622
F178.7674
F178.7674
F178.7674
F178.7674
tp523
a(I623
F229.5478
F229.5478
F229.5478
F229.5478
tp524
a(I624
F163.7592
F163.7592
F163.7592
F163.7592
tp525
a(I625
F124.3086
F124.3086
F124.3086
F124.3086
tp526
a(I626
F101.9422
F101.9422
F101.9422
F101.9422
tp527
a(I627
F63.81499999999999
F63.815
F63.815
F63.815
tp528
a(I628
F172.15359999999998
F172.1536
F172.1536
F172.1536
tp529
a(I629
F206.8866
F206.8866
F206.8866
F206.8866
tp530
a(I630
F121.4026
F121.4026
F121.4026
F121.4026
tp531
a(I631
F215.88609999999997
F215.8861
F215.8861
F215.8861
tp532
a(I632
F113.98
F113.98
F113.98
F113.98
tp533
a(I633
F203.93129999999996
F203.9313
F203.9313
F203.9313
tp534
a(I634
F206.4318
F206.4318
F206.4318
F206.4318
tp535
a(I635
F115.667
F115.667
F115.667
F115.667
tp536
a(I636
F81.4094
F81.4094
F81.4094
F81.4094
tp537
a(I637
F147.2257
F147.2257
F147.2257
F147.2257
tp538
a(I638
F139.2476
F139.2476
F139.2476
F139.2476
tp539
a(I639
F210.04949999999997
F210.0495
F210.0495
F210.0495
tp540
a(I640
F218.51669999999996
F218.5167
F218.5167
F218.5167
tp541
a(I641
F156.2702
F156.2702
F156.2702
F156.2702
tp542
a(I642
F71.7159
F71.7159
F71.7159
F71.7159
tp543
a(I643
F125.83819999999999
F125.8382
F125.8382
F125.8382
tp544
a(I644
F230.984
F230.984
F230.984
F230.984
tp545
a(I645
F210.87149999999997
F210.8715
F210.8715
F210.8715
tp546
a(I646
F200.9701
F200.9701
F200.9701
F200.9701
tp547
a(I647
F196.82
F196.82
F196.82
F196.82
tp548
a(I648
F183.6445
F183.6445
F183.6445
F183.6445
tp549
a(I649
F160.373
F160.373
F160.373
F160.373
tp550
a(I650
F154.5072
F154.5072
F154.5072
F154.5072
tp551
a(I651
F205.9538
F205.9538
F205.9538
F205.9538
tp552
a(I652
F196.9548
F196.9548
F196.9548
F196.9548
tp553
a(I653
F162.7335
F162.7335
F162.7335
F162.7335
tp554
a(I654
F212.6096
F212.6096
F212.6096
F212.6096
tp555
a(I655
F184.5384
F184.5384
F184.5384
F184.5384
tp556
a(I656
F122.08609999999999
F122.0861
F122.0861
F122.0861
tp557
a(I657
F177.5924
F177.5924
F177.5924
F177.5924
tp558
a(I658
F100.4669
F100.4669
F100.4669
F100.4669
tp559
a(I659
F189.5767
F189.5767
F189.5767
F189.5767
tp560
a(I660
F157.0697
F157.0697
F157.0697
F157.0697
tp561
a(I661
F224.2681
F224.2681
F224.2681
F224.2681
tp562
a(I662
F134.9655
F134.9655
F134.9655
F134.9655
tp563
a(I663
F192.33929999999998
F192.3393
F192.3393
F192.3393
tp564
a(I664
F105.3484
F105.3484
F105.3484
F105.3484
tp565
a(I665
F201.0435
F201.0435
F201.0435
F201.0435
tp566
a(I666
F120.7623
F120.7623
F120.7623
F120.7623
tp567
a(I667
F203.45099999999996
F203.451
F203.451
F203.451
tp568
a(I668
F129.4875
F129.4875
F129.4875
F129.4875
tp569
a(I669
F225.7856
F225.7856
F225.7856
F225.7856
tp570
a(I670
F177.9334
F177.9334
F177.9334
F177.9334
tp571
a(I671
F224.33169999999998
F224.3317
F224.3317
F224.3317
tp572
a(I672
F65.8898
F65.8898
F65.8898
F65.8898
tp573
a(I673
F132.2055
F132.2055
F132.2055
F132.2055
tp574
a(I674
F114.19209999999998
F114.1921
F114.1921
F114.1921
tp575
a(I675
F108.4445
F108.4445
F108.4445
F108.4445
tp576
a(I676
F83.9747
F83.9747
F83.9747
F83.9747
tp577
a(I677
F201.0142
F201.0142
F201.0142
F201.0142
tp578
a(I678
F203.1976
F203.1976
F203.1976
F203.1976
tp579
a(I679
F195.7665
F195.7665
F195.7665
F195.7665
tp580
a(I680
F167.1566
F167.1566
F167.1566
F167.1566
tp581
a(I681
F147.4082
F147.4082
F147.4082
F147.4082
tp582
a.